(dp0
S'isotope_yield'
p1
(dp2
S'^41^K'
p3
cnumpy.core.multiarray
_reconstruct
p4
(cnumpy
ndarray
p5
(I0
tp6
S'b'
p7
tp8
Rp9
(I1
(I2
tp10
cnumpy
dtype
p11
(S'f8'
p12
I0
I1
tp13
Rp14
(I3
S'<'
p15
NNNI-1
I-1
I0
tp16
bI00
S'\xb7\x87\xef\x8a\x01\x8e\x14?U\xd4mD\x88\x0f\xc2>'
p17
tp18
bsS'^33^S'
p19
g4
(g5
(I0
tp20
g7
tp21
Rp22
(I1
(I2
tp23
g14
I00
S'.\xe2\xea\xe9\xebE\xb6?[Y\xf2\xd7\x1bk\xb7?'
p24
tp25
bsS'^51^V'
p26
g4
(g5
(I0
tp27
g7
tp28
Rp29
(I1
(I2
tp30
g14
I00
S'\x90\x11g}~\xa3\x13?I\x16b\x04\xbcd\x06?'
p31
tp32
bsS'^40^Ar'
p33
g4
(g5
(I0
tp34
g7
tp35
Rp36
(I1
(I2
tp37
g14
I00
S'S?\xfe\xf9\x8e\x06\x90?6\xd3/\x98\x1f\x8f\x93?'
p38
tp39
bsS'^24^Mg'
p40
g4
(g5
(I0
tp41
g7
tp42
Rp43
(I1
(I2
tp44
g14
I00
S'\x0eF6\xa1Z\x8e\x81?\xc3\xc4=\x9b\xf7-\x90?'
p45
tp46
bsS'^22^Ne'
p47
g4
(g5
(I0
tp48
g7
tp49
Rp50
(I1
(I2
tp51
g14
I00
S'~@\xda\xde\xf2\x81r?\xe8Gl\x04\x95\xc2b?'
p52
tp53
bsS'^36^Ar'
p54
g4
(g5
(I0
tp55
g7
tp56
Rp57
(I1
(I2
tp58
g14
I00
S'%u\x02\x9a\x08\x1b\x8e?\x1e\x16jM\xf3\x8e\x93?'
p59
tp60
bsS'^45^Sc'
p61
g4
(g5
(I0
tp62
g7
tp63
Rp64
(I1
(I2
tp65
g14
I00
S'}\x0e\xd3\x8e\x80\xa9\x8d>+\xbaNSf\xabd>'
p66
tp67
bsS'^34^S'
p68
g4
(g5
(I0
tp69
g7
tp70
Rp71
(I1
(I2
tp72
g14
I00
S'*\xe3\xdfg\\8`?#?,\xe5\xc6>\xf2>'
p73
tp74
bsS'^62^Ni'
p75
g4
(g5
(I0
tp76
g7
tp77
Rp78
(I1
(I2
tp79
g14
I00
S'\x8c\xa01\x93\xa8\x17\xc0?\x96\n*\xaa~\xa5\xb9?'
p80
tp81
bsS'^47^Ti'
p82
g4
(g5
(I0
tp83
g7
tp84
Rp85
(I1
(I2
tp86
g14
I00
S'\xde\xd9G<\x13y6?,>E\xdb\x1f\x92;?'
p87
tp88
bsS'^64^Ni'
p89
g4
(g5
(I0
tp90
g7
tp91
Rp92
(I1
(I2
tp93
g14
I00
S'fL\xc1\x1ag\xd3\xf1>\xfa\x9c\xbb]/M\xf1>'
p94
tp95
bsS'^31^P'
p96
g4
(g5
(I0
tp97
g7
tp98
Rp99
(I1
(I2
tp100
g14
I00
S'F\xb4\x1dSwe7?\x1c\x0c\xd0\x11T\xe8\x17?'
p101
tp102
bsS'^32^S'
p103
g4
(g5
(I0
tp104
g7
tp105
Rp106
(I1
(I2
tp107
g14
I00
S'\x7f\xd9=yX\xa8\xb5?\xf5\xb9\xda\x8a\xfde\xb7?'
p108
tp109
bsS'^40^Ca'
p110
g4
(g5
(I0
tp111
g7
tp112
Rp113
(I1
(I2
tp114
g14
I00
S'\xea~\xda,\x12r\x88?\xde\xccP\xa0q\x8c\x92?'
p115
tp116
bsS'^60^Ni'
p117
g4
(g5
(I0
tp118
g7
tp119
Rp120
(I1
(I2
tp121
g14
I00
S'\x13a\xc3\xd3+e\x89?%u\x02\x9a\x08\x1b\x8e?'
p122
tp123
bsS'^67^Zn'
p124
g4
(g5
(I0
tp125
g7
tp126
Rp127
(I1
(I2
tp128
g14
I00
S'\tz\x07\xbb\xca\x9a\xfd>\x9b\xc5J\x03\xae\x05\x14?'
p129
tp130
bsS'^50^Ti'
p131
g4
(g5
(I0
tp132
g7
tp133
Rp134
(I1
(I2
tp135
g14
I00
S"()\xb0\x00\xa6\x0c\x1c?\x05\xa2'eRC\x1b?"
p136
tp137
bsS'^50^V'
p138
g4
(g5
(I0
tp139
g7
tp140
Rp141
(I1
(I2
tp142
g14
I00
S'\xe0\x9f\xe5\x88\x9b\xa4P>\xd6\xa0\xa1[\x053J>'
p143
tp144
bsS'^49^Ti'
p145
g4
(g5
(I0
tp146
g7
tp147
Rp148
(I1
(I2
tp149
g14
I00
S'\x15\t\\\r?\xee\xf1>\n\xc1\xc3\x17\x9a\xa9\xc8>'
p150
tp151
bsS'^37^Cl'
p152
g4
(g5
(I0
tp153
g7
tp154
Rp155
(I1
(I2
tp156
g14
I00
S'*H}\xa3g\xc4&?\xa6Nz\xbe\xea\xf1\xf0>'
p157
tp158
bsS'^57^Fe'
p159
g4
(g5
(I0
tp160
g7
tp161
Rp162
(I1
(I2
tp163
g14
I00
S'\xd5!7\xc3\r\xf8\xe7?\x03[%X\x1c\xce\xe8?'
p164
tp165
bsS'^68^Zn'
p166
g4
(g5
(I0
tp167
g7
tp168
Rp169
(I1
(I2
tp170
g14
I00
S'\xf5\xa2\x10&\xe0\xaeR>\x7fuP\x9e=DH>'
p171
tp172
bsS'^58^Ni'
p173
g4
(g5
(I0
tp174
g7
tp175
Rp176
(I1
(I2
tp177
g14
I00
S')\\\x8f\xc2\xf5(\xbc?\xb6\x84|\xd0\xb3Y\xb5?'
p178
tp179
bsS'^43^Ca'
p180
g4
(g5
(I0
tp181
g7
tp182
Rp183
(I1
(I2
tp184
g14
I00
S'\x9d\x19\x14\xbc\x8e\xe0y>\x12>\x02\xe1\xfd\x8fp>'
p185
tp186
bsS'^28^Si'
p187
g4
(g5
(I0
tp188
g7
tp189
Rp190
(I1
(I2
tp191
g14
I00
S"\xa7;O<g\x0b\xc4??\xab'NI1\xc2?"
p192
tp193
bsS'^38^Ar'
p194
g4
(g5
(I0
tp195
g7
tp196
Rp197
(I1
(I2
tp198
g14
I00
S'\xc5\x8f1w-!O?\x9c\x10BY[%\xa6>'
p199
tp200
bsS'^53^Cr'
p201
g4
(g5
(I0
tp202
g7
tp203
Rp204
(I1
(I2
tp205
g14
I00
S'8M\x9f\x1dp]\x81?ZJ\x96\x93P\xfa\x82?'
p206
tp207
bsS'^61^Ni'
p208
g4
(g5
(I0
tp209
g7
tp210
Rp211
(I1
(I2
tp212
g14
I00
S'!\x02\x0e\xa1J\xcd.?\x03\x95\xf1\xef3.,?'
p213
tp214
bsS'^65^Cu'
p215
g4
(g5
(I0
tp216
g7
tp217
Rp218
(I1
(I2
tp219
g14
I00
S'\xbf\xf7\x04w\n3\xc9>.\xd8n\x04\xa7\x13\xd0>'
p220
tp221
bsS'^36^S'
p222
g4
(g5
(I0
tp223
g7
tp224
Rp225
(I1
(I2
tp226
g14
I00
S'_j\x0fq/\r\x9c>m\xedt\xfa%\xbf\xc2='
p227
tp228
bsS'^54^Cr'
p229
g4
(g5
(I0
tp230
g7
tp231
Rp232
(I1
(I2
tp233
g14
I00
S'\xb5R\x08\xe4\x12GN?m7\xc17M\x9fM?'
p234
tp235
bsS'^56^Fe'
p236
g4
(g5
(I0
tp237
g7
tp238
Rp239
(I1
(I2
tp240
g14
I00
S'\xd5x\xe9&1\x08\xe4?\xc3\xf5(\\\x8f\xc2\xe5?'
p241
tp242
bsS'^48^Ti'
p243
g4
(g5
(I0
tp244
g7
tp245
Rp246
(I1
(I2
tp247
g14
I00
S't^c\x97\xa8\xde*?ro~\xc3D\x834?'
p248
tp249
bsS'^42^Ca'
p250
g4
(g5
(I0
tp251
g7
tp252
Rp253
(I1
(I2
tp254
g14
I00
S'\x16\xd9s>\xe1\x91\xfd>\x1f\xa9f`i\xc3F>'
p255
tp256
bsS'^39^K'
p257
g4
(g5
(I0
tp258
g7
tp259
Rp260
(I1
(I2
tp261
g14
I00
S'\xc2\xb8\xc0\x8a\xf8\xf3\x12?\xf4V\x1bk\x98\x04\xbc>'
p262
tp263
bsS'^52^Cr'
p264
g4
(g5
(I0
tp265
g7
tp266
Rp267
(I1
(I2
tp268
g14
I00
S'[|\n\x80\xf1\x0cz?\xefU+\x13~\xa9\x7f?'
p269
tp270
bsS'^14^N'
p271
g4
(g5
(I0
tp272
g7
tp273
Rp274
(I1
(I2
tp275
g14
I00
S'` \xf4\xd7\xd4{\xb3>SGq\x8c\xf0\xef\x9d>'
p276
tp277
bsS'^35^Cl'
p278
g4
(g5
(I0
tp279
g7
tp280
Rp281
(I1
(I2
tp282
g14
I00
S'A\xb8\x02\n\xf5\xf4!?(A$\xe8\xd4:\xe6>'
p283
tp284
bsS'^15^N'
p285
g4
(g5
(I0
tp286
g7
tp287
Rp288
(I1
(I2
tp289
g14
I00
S'\xba/\x85\xe0k\xad\x16>.\xa8\x865I\xb7\x9b>'
p290
tp291
bsS'^63^Cu'
p292
g4
(g5
(I0
tp293
g7
tp294
Rp295
(I1
(I2
tp296
g14
I00
S'\x14\xff\xfb|)v\xc3>T\xe4\x10qs*\xc9>'
p297
tp298
bsS'^46^Ca'
p299
g4
(g5
(I0
tp300
g7
tp301
Rp302
(I1
(I2
tp303
g14
I00
S'\xb9\xa12\xe7\xf7\xdd1>^\xc9\xe9\xe7\x06Z\x11>'
p304
tp305
bsS'^46^Ti'
p306
g4
(g5
(I0
tp307
g7
tp308
Rp309
(I1
(I2
tp310
g14
I00
S'!\x0e\xc8\x14b\xe4\xeb>\x89\xf2|;\xc6k\x97>'
p311
tp312
bsS'^26^Mg'
p313
g4
(g5
(I0
tp314
g7
tp315
Rp316
(I1
(I2
tp317
g14
I00
S'\xde0\x1b\xae\x1f\xac\x00?}\xbd(eE\x19\x89>'
p318
tp319
bsS'^12^C'
p320
g4
(g5
(I0
tp321
g7
tp322
Rp323
(I1
(I2
tp324
g14
I00
S')\xb8\xb3\n\xf6\xba\xa8?\x93\x84\xac2u\x02\xaa?'
p325
tp326
bsS'^18^O'
p327
g4
(g5
(I0
tp328
g7
tp329
Rp330
(I1
(I2
tp331
g14
I00
S'k\xe3t?\xd3M\xc2?\x98\x0ez\xde$\x06\xc1?'
p332
tp333
bsS'^50^Cr'
p334
g4
(g5
(I0
tp335
g7
tp336
Rp337
(I1
(I2
tp338
g14
I00
S'T\x02b\x12.\xe41?\xd5\x08\xfdL\xbdn\x11?'
p339
tp340
bsS'^13^C'
p341
g4
(g5
(I0
tp342
g7
tp343
Rp344
(I1
(I2
tp345
g14
I00
S'_\x19eG\xf4|\xb7>\x96\xf2\xcb\xda\xf3\xcc\x1a>'
p346
tp347
bsS'^55^Mn'
p348
g4
(g5
(I0
tp349
g7
tp350
Rp351
(I1
(I2
tp352
g14
I00
S'&\xfcR?o*\x82?\x81\xcf\x0f#\x84G{?'
p353
tp354
bsS'^21^Ne'
p355
g4
(g5
(I0
tp356
g7
tp357
Rp358
(I1
(I2
tp359
g14
I00
S'\xda\x1b\xdf\x8b\xed\xbd\xe1>B\xcf\x1d\xb6\x11,^>'
p360
tp361
bsS'^19^F'
p362
g4
(g5
(I0
tp363
g7
tp364
Rp365
(I1
(I2
tp366
g14
I00
S'\xb6X\x8e~b{\x03>\x86$CLB\xd4\xe2='
p367
tp368
bsS'^27^Al'
p369
g4
(g5
(I0
tp370
g7
tp371
Rp372
(I1
(I2
tp373
g14
I00
S"<-?p\x95'P?m7\xc17M\x9f\x1d?"
p374
tp375
bsS'^29^Si'
p376
g4
(g5
(I0
tp377
g7
tp378
Rp379
(I1
(I2
tp380
g14
I00
S"H\xa3\x02'\xdb\xc0M?8`\xfc\xd94[\x0e?"
p381
tp382
bsS'^30^Si'
p383
g4
(g5
(I0
tp384
g7
tp385
Rp386
(I1
(I2
tp387
g14
I00
S'\x8e@\xbc\xae_\xb0[?\xe01\x97\xaf&\xaa\x12?'
p388
tp389
bsS'^59^Co'
p390
g4
(g5
(I0
tp391
g7
tp392
Rp393
(I1
(I2
tp394
g14
I00
S'C\xc58\x7f\x13\nQ?\x1f\xf5\xd7+,\xb8O?'
p395
tp396
bsS'^44^Ca'
p397
g4
(g5
(I0
tp398
g7
tp399
Rp400
(I1
(I2
tp401
g14
I00
S"\xd3\x05'h\xb4\xd1\xe0>\xfal\xd3\x8e\xd1\xf0\xec>"
p402
tp403
bsS'^58^Fe'
p404
g4
(g5
(I0
tp405
g7
tp406
Rp407
(I1
(I2
tp408
g14
I00
S'5)\x05\xdd^\xd2h?V\xf1F\xe6\x91?h?'
p409
tp410
bsS'^66^Zn'
p411
g4
(g5
(I0
tp412
g7
tp413
Rp414
(I1
(I2
tp415
g14
I00
S'\x82\xb8a\xcavt\xf2>s[\x8d\xb2\x9fA\xda>'
p416
tp417
bsS'^54^Fe'
p418
g4
(g5
(I0
tp419
g7
tp420
Rp421
(I1
(I2
tp422
g14
I00
S'\xa6\x9b\xc4 \xb0r\xb8?\xe3\xa5\x9b\xc4 \xb0\xb2?'
p423
tp424
bsS'^25^Mg'
p425
g4
(g5
(I0
tp426
g7
tp427
Rp428
(I1
(I2
tp429
g14
I00
S'\xa7@fg\xd1;\x05?\xef\xc2qA\xff\x02\x86>'
p430
tp431
bsS'^17^O'
p432
g4
(g5
(I0
tp433
g7
tp434
Rp435
(I1
(I2
tp436
g14
I00
S'.*\x9e\xc5V\x01c>x\xb9\x08\xad2\xe2\xf6='
p437
tp438
bsS'^48^Ca'
p439
g4
(g5
(I0
tp440
g7
tp441
Rp442
(I1
(I2
tp443
g14
I00
S'(J\xff\xe0uU&>\x0c \x8cb\x967%>'
p444
tp445
bsS'^20^Ne'
p446
g4
(g5
(I0
tp447
g7
tp448
Rp449
(I1
(I2
tp450
g14
I00
S'\xcep\x03>?\x8c`?\xdflscz\xc2b?'
p451
tp452
bsS'^64^Zn'
p453
g4
(g5
(I0
tp454
g7
tp455
Rp456
(I1
(I2
tp457
g14
I00
S'(A$\xe8\xd4:\xe6>\xfe\xaam\xd4T`\x12?'
p458
tp459
bsS'^16^O'
p460
g4
(g5
(I0
tp461
g7
tp462
Rp463
(I1
(I2
tp464
g14
I00
S'\xe7\xfb\xa9\xf1\xd2M\xc2?\xa0\x1a/\xdd$\x06\xc1?'
p465
tp466
bsS'^23^Na'
p467
g4
(g5
(I0
tp468
g7
tp469
Rp470
(I1
(I2
tp471
g14
I00
S'/t\x80\xbbG\x91\x10?\x16\xd9s>\xe1\x91\xed>'
p472
tp473
bssS'Zs'
p474
g4
(g5
(I0
tp475
g7
tp476
Rp477
(I1
(I2
tp478
g14
I00
S'{\x14\xaeG\xe1z\x94?\x00\x00\x00\x00\x00\x00\x00\x00'
p479
tp480
bsS'element_yield'
p481
(dp482
S'Ni'
p483
g78
sS'Na'
p484
g470
sS'C'
p485
g323
sS'Al'
p486
g372
sS'Ti'
p487
g85
sS'Z'
p488
g4
(g5
(I0
tp489
g7
tp490
Rp491
(I1
(I2
tp492
g14
I00
S'\x02\xbd//\xec\xee\xf5?\x9f\xed\x86\x80\x06\xda\xf5?'
p493
tp494
bsS'Fe'
p495
g162
sS'Mg'
p496
g43
sS'F'
p497
g365
sS'K'
p498
g9
sS'Mn'
p499
g351
sS'O'
p500
g330
sS'Ne'
p501
g50
sS'P'
p502
g99
sS'Si'
p503
g190
sS'V'
p504
g29
sS'Sc'
p505
g64
sS'N'
p506
g274
sS'Zn'
p507
g127
sS'Co'
p508
g393
sS'Cl'
p509
g155
sS'm_ej'
p510
g491
sS'Ca'
p511
g113
sS'S'
p512
g22
sS'Ar'
p513
g36
sS'Cr'
p514
g204
sS'Cu'
p515
g218
ss.